target datalayout = "e-m:e-p270:32:32-p271:32:32-p272:64:64-i64:64-i128:128-f80:128-n8:16:32:64-S128"
target triple = "x86_64-pc-linux-gnu"

%struct.PQExpBufferData = type { ptr, i64, i64 }

@.str.14 = private unnamed_addr constant [38 x i8] c"ALTER DEFAULT PRIVILEGES FOR ROLE %s \00", align 1
@.str.15 = private unnamed_addr constant [14 x i8] c"IN SCHEMA %s \00", align 1
@.str.16 = private unnamed_addr constant [1 x i8] zeroinitializer, align 1

; Function Attrs: nounwind uwtable
define dso_local zeroext i1 @buildDefaultACLCommands(ptr noundef %0, ptr noundef %1, ptr noundef %2, ptr noundef %3, ptr noundef %4, i32 noundef %5, ptr noundef %6) #0 {
  %8 = alloca i1, align 1
  %9 = alloca ptr, align 8
  %10 = alloca ptr, align 8
  %11 = alloca ptr, align 8
  %12 = alloca ptr, align 8
  %13 = alloca ptr, align 8
  %14 = alloca i32, align 4
  %15 = alloca ptr, align 8
  %16 = alloca ptr, align 8
  %17 = alloca i32, align 4
  store ptr %0, ptr %9, align 8
  store ptr %1, ptr %10, align 8
  store ptr %2, ptr %11, align 8
  store ptr %3, ptr %12, align 8
  store ptr %4, ptr %13, align 8
  store i32 %5, ptr %14, align 4
  store ptr %6, ptr %15, align 8
  call void @llvm.lifetime.start.p0(i64 8, ptr %16) #8
  %18 = call ptr @createPQExpBuffer()
  store ptr %18, ptr %16, align 8
  %19 = load ptr, ptr %16, align 8
  %20 = load ptr, ptr %13, align 8
  %21 = call ptr @fmtId(ptr noundef %20)
  call void (ptr, ptr, ...) @appendPQExpBuffer(ptr noundef %19, ptr noundef @.str.14, ptr noundef %21)
  %22 = load ptr, ptr %10, align 8
  %23 = icmp ne ptr %22, null
  br i1 %23, label %24, label %28

24:                                               ; preds = %7
  %25 = load ptr, ptr %16, align 8
  %26 = load ptr, ptr %10, align 8
  %27 = call ptr @fmtId(ptr noundef %26)
  call void (ptr, ptr, ...) @appendPQExpBuffer(ptr noundef %25, ptr noundef @.str.15, ptr noundef %27)
  br label %28

28:                                               ; preds = %24, %7
  %29 = load ptr, ptr %9, align 8
  %30 = load ptr, ptr %11, align 8
  %31 = load ptr, ptr %12, align 8
  %32 = load ptr, ptr %13, align 8
  %33 = load ptr, ptr %16, align 8
  %34 = getelementptr inbounds nuw %struct.PQExpBufferData, ptr %33, i32 0, i32 0
  %35 = load ptr, ptr %34, align 8
  %36 = load i32, ptr %14, align 4
  %37 = load ptr, ptr %15, align 8
  %38 = call zeroext i1 @buildACLCommands(ptr noundef @.str.16, ptr noundef null, ptr noundef null, ptr noundef %29, ptr noundef %30, ptr noundef %31, ptr noundef %32, ptr noundef %35, i32 noundef %36, ptr noundef %37)
  br i1 %38, label %41, label %39

39:                                               ; preds = %28
  %40 = load ptr, ptr %16, align 8
  call void @destroyPQExpBuffer(ptr noundef %40)
  store i1 false, ptr %8, align 1
  store i32 1, ptr %17, align 4
  br label %43

41:                                               ; preds = %28
  %42 = load ptr, ptr %16, align 8
  call void @destroyPQExpBuffer(ptr noundef %42)
  store i1 true, ptr %8, align 1
  store i32 1, ptr %17, align 4
  br label %43

43:                                               ; preds = %41, %39
  call void @llvm.lifetime.end.p0(i64 8, ptr %16) #8
  %44 = load i1, ptr %8, align 1
  ret i1 %44
}