; Function Attrs: nounwind uwtable
define dso_local noundef zeroext i1 @buildDefaultACLCommands(ptr noundef %0, ptr noundef %1, ptr noundef %2, ptr noundef %3, ptr noundef %4, i32 noundef %5, ptr noundef %6) local_unnamed_addr #0 {
  %8 = tail call ptr @createPQExpBuffer() #8
  %9 = tail call ptr @fmtId(ptr noundef %4) #8
  tail call void (ptr, ptr, ...) @appendPQExpBuffer(ptr noundef %8, ptr noundef nonnull @.str.14, ptr noundef %9) #8
  %.not = icmp eq ptr %1, null
  br i1 %.not, label %12, label %10

10:                                               ; preds = %7
  %11 = tail call ptr @fmtId(ptr noundef nonnull %1) #8
  tail call void (ptr, ptr, ...) @appendPQExpBuffer(ptr noundef %8, ptr noundef nonnull @.str.15, ptr noundef %11) #8
  br label %12

12:                                               ; preds = %10, %7
  %13 = load ptr, ptr %8, align 8
  %14 = tail call zeroext i1 @buildACLCommands(ptr noundef nonnull @.str.16, ptr noundef null, ptr noundef null, ptr noundef %0, ptr noundef %2, ptr noundef %3, ptr noundef %4, ptr noundef %13, i32 poison, ptr noundef %6)
  tail call void @destroyPQExpBuffer(ptr noundef nonnull %8) #8
  ret i1 %14
}